target datalayout = "e-m:e-p270:32:32-p271:32:32-p272:64:64-i64:64-i128:128-f80:128-n8:16:32:64-S128"
target triple = "x86_64-unknown-linux-gnu"

%struct.QTailQLink = type { ptr, ptr }
%struct.BlockDriverState = type { i32, i8, i8, i8, i8, i8, ptr, ptr, ptr, %struct.anon.0, i8, [4096 x i8], [4096 x i8], [4096 x i8], [16 x i8], ptr, [4096 x i8], %struct.BlockLimits, i32, i32, i32, i32, [32 x i8], %union.anon, %union.anon.1, %union.anon.2, i32, [16 x %struct.anon.3], ptr, %struct.anon.4, ptr, ptr, %struct.anon.5, ptr, ptr, i32, ptr, i64, i64, %struct.QemuMutex, %struct.anon.6, %struct.Stat64, i32, i32, i32, i32, i32, i32, %struct.QemuMutex, %struct.anon.7, %struct.CoQueue, i8, i32, i8, %struct.CoMutex, ptr, ptr }
%struct.anon.0 = type { ptr }
%struct.BlockLimits = type { i32, i64, i32, i64, i32, i32, i32, i64, i32, i64, i64, i32, i8, i32, i32, i32, i32, i32, i32, i32 }
%union.anon = type { %struct.QTailQLink }
%union.anon.1 = type { %struct.QTailQLink }
%union.anon.2 = type { %struct.QTailQLink }
%struct.anon.3 = type { ptr }
%struct.anon.4 = type { ptr }
%struct.anon.5 = type { ptr }
%struct.anon.6 = type { ptr }
%struct.Stat64 = type { i64 }
%struct.QemuMutex = type { %union.pthread_mutex_t, i8 }
%union.pthread_mutex_t = type { %struct.__pthread_mutex_s }
%struct.__pthread_mutex_s = type { i32, i32, i32, i32, i32, i16, i16, %struct.__pthread_internal_list }
%struct.__pthread_internal_list = type { ptr, ptr }
%struct.anon.7 = type { ptr }
%struct.CoQueue = type { %struct.anon.8 }
%struct.anon.8 = type { ptr, ptr }
%struct.CoMutex = type { i32, ptr, %struct.anon.9, %struct.anon.9, i32, i32, ptr }
%struct.anon.9 = type { ptr }
%struct.BDRVQuorumState = type { ptr, i32, i32, i32, i8, i8, i32 }
%struct.BdrvChild = type { ptr, ptr, ptr, i32, ptr, i64, i64, i8, i8, %struct.anon.10, %struct.anon.11 }
%struct.anon.10 = type { ptr, ptr }
%struct.anon.11 = type { ptr, ptr }
%struct.QuorumAIOCB = type { ptr, ptr, i64, i64, i32, ptr, ptr, i32, i32, i32, %struct.QuorumVotes, i8, i32, i32 }
%struct.QuorumVotes = type { %struct.anon.15, ptr }
%struct.anon.15 = type { ptr }
%struct.QuorumCo = type { ptr, i32 }
%struct.QuorumChildRequest = type { ptr, %struct.QEMUIOVector, ptr, i32, ptr }
%struct.QEMUIOVector = type { ptr, i32, %union.anon.16 }
%union.anon.16 = type { %struct.anon.17 }
%struct.anon.17 = type { i32, %struct.iovec }
%struct.iovec = type { ptr, i64 }

@.str.6 = private unnamed_addr constant [23 x i8] c"../qemu/block/quorum.c\00", align 1
@.str.32 = private unnamed_addr constant [30 x i8] c"acb->count <= s->num_children\00", align 1
@__PRETTY_FUNCTION__.read_quorum_children_entry = private unnamed_addr constant [40 x i8] c"void read_quorum_children_entry(void *)\00", align 1
@.str.33 = private unnamed_addr constant [38 x i8] c"acb->success_count <= s->num_children\00", align 1

; Function Attrs: nounwind sspstrong uwtable
define internal void @quorum_report_bad(i32 noundef %type, i64 noundef %offset, i64 noundef %bytes, ptr noundef %node_name, i32 noundef %ret) #0 {
entry:
  %type.addr = alloca i32, align 4
  %offset.addr = alloca i64, align 8
  %bytes.addr = alloca i64, align 8
  %node_name.addr = alloca ptr, align 8
  %ret.addr = alloca i32, align 4
  %msg = alloca ptr, align 8
  %start_sector = alloca i64, align 8
  %end_sector = alloca i64, align 8
  store i32 %type, ptr %type.addr, align 4
  store i64 %offset, ptr %offset.addr, align 8
  store i64 %bytes, ptr %bytes.addr, align 8
  store ptr %node_name, ptr %node_name.addr, align 8
  store i32 %ret, ptr %ret.addr, align 4
  store ptr null, ptr %msg, align 8
  %0 = load i64, ptr %offset.addr, align 8
  %div = udiv i64 %0, 512
  store i64 %div, ptr %start_sector, align 8
  %1 = load i64, ptr %offset.addr, align 8
  %2 = load i64, ptr %bytes.addr, align 8
  %add = add i64 %1, %2
  %add1 = add i64 %add, 512
  %sub = sub i64 %add1, 1
  %div2 = udiv i64 %sub, 512
  store i64 %div2, ptr %end_sector, align 8
  %3 = load i32, ptr %ret.addr, align 4
  %cmp = icmp slt i32 %3, 0
  br i1 %cmp, label %if.then, label %if.end

if.then:                                          ; preds = %entry
  %4 = load i32, ptr %ret.addr, align 4
  %sub3 = sub i32 0, %4
  %call = call ptr @strerror(i32 noundef %sub3) #8
  store ptr %call, ptr %msg, align 8
  br label %if.end

if.end:                                           ; preds = %if.then, %entry
  %5 = load i32, ptr %type.addr, align 4
  %6 = load ptr, ptr %msg, align 8
  %7 = load ptr, ptr %node_name.addr, align 8
  %8 = load i64, ptr %start_sector, align 8
  %9 = load i64, ptr %end_sector, align 8
  %10 = load i64, ptr %start_sector, align 8
  %sub4 = sub i64 %9, %10
  call void @qapi_event_send_quorum_report_bad(i32 noundef %5, ptr noundef %6, ptr noundef %7, i64 noundef %8, i64 noundef %sub4)
  ret void
}

; Function Attrs: nounwind sspstrong uwtable
define internal void @quorum_report_bad_acb(ptr noundef %sacb, i32 noundef %ret) #0 {
entry:
  %sacb.addr = alloca ptr, align 8
  %ret.addr = alloca i32, align 4
  %acb = alloca ptr, align 8
  %type = alloca i32, align 4
  store ptr %sacb, ptr %sacb.addr, align 8
  store i32 %ret, ptr %ret.addr, align 4
  %0 = load ptr, ptr %sacb.addr, align 8
  %parent = getelementptr inbounds %struct.QuorumChildRequest, ptr %0, i32 0, i32 4
  %1 = load ptr, ptr %parent, align 8
  store ptr %1, ptr %acb, align 8
  %2 = load ptr, ptr %acb, align 8
  %is_read = getelementptr inbounds %struct.QuorumAIOCB, ptr %2, i32 0, i32 11
  %3 = load i8, ptr %is_read, align 8
  %tobool = trunc i8 %3 to i1
  %cond = select i1 %tobool, i32 0, i32 1
  store i32 %cond, ptr %type, align 4
  %4 = load i32, ptr %type, align 4
  %5 = load ptr, ptr %acb, align 8
  %offset = getelementptr inbounds %struct.QuorumAIOCB, ptr %5, i32 0, i32 2
  %6 = load i64, ptr %offset, align 8
  %7 = load ptr, ptr %acb, align 8
  %bytes = getelementptr inbounds %struct.QuorumAIOCB, ptr %7, i32 0, i32 3
  %8 = load i64, ptr %bytes, align 8
  %9 = load ptr, ptr %sacb.addr, align 8
  %bs = getelementptr inbounds %struct.QuorumChildRequest, ptr %9, i32 0, i32 0
  %10 = load ptr, ptr %bs, align 8
  %node_name = getelementptr inbounds %struct.BlockDriverState, ptr %10, i32 0, i32 22
  %arraydecay = getelementptr inbounds [32 x i8], ptr %node_name, i64 0, i64 0
  %11 = load i32, ptr %ret.addr, align 4
  call void @quorum_report_bad(i32 noundef %4, i64 noundef %6, i64 noundef %8, ptr noundef %arraydecay, i32 noundef %11)
  ret void
}

; Function Attrs: nounwind sspstrong uwtable
define internal void @read_quorum_children_entry(ptr noundef %opaque) #0 {
entry:
  %opaque.addr = alloca ptr, align 8
  %co = alloca ptr, align 8
  %acb = alloca ptr, align 8
  %s = alloca ptr, align 8
  %i = alloca i32, align 4
  %sacb = alloca ptr, align 8
  store ptr %opaque, ptr %opaque.addr, align 8
  %0 = load ptr, ptr %opaque.addr, align 8
  store ptr %0, ptr %co, align 8
  %1 = load ptr, ptr %co, align 8
  %acb1 = getelementptr inbounds %struct.QuorumCo, ptr %1, i32 0, i32 0
  %2 = load ptr, ptr %acb1, align 8
  store ptr %2, ptr %acb, align 8
  %3 = load ptr, ptr %acb, align 8
  %bs = getelementptr inbounds %struct.QuorumAIOCB, ptr %3, i32 0, i32 0
  %4 = load ptr, ptr %bs, align 8
  %opaque2 = getelementptr inbounds %struct.BlockDriverState, ptr %4, i32 0, i32 7
  %5 = load ptr, ptr %opaque2, align 8
  store ptr %5, ptr %s, align 8
  %6 = load ptr, ptr %co, align 8
  %idx = getelementptr inbounds %struct.QuorumCo, ptr %6, i32 0, i32 1
  %7 = load i32, ptr %idx, align 8
  store i32 %7, ptr %i, align 4
  %8 = load ptr, ptr %acb, align 8
  %qcrs = getelementptr inbounds %struct.QuorumAIOCB, ptr %8, i32 0, i32 6
  %9 = load ptr, ptr %qcrs, align 8
  %10 = load i32, ptr %i, align 4
  %idxprom = sext i32 %10 to i64
  %arrayidx = getelementptr %struct.QuorumChildRequest, ptr %9, i64 %idxprom
  store ptr %arrayidx, ptr %sacb, align 8
  %11 = load ptr, ptr %s, align 8
  %children = getelementptr inbounds %struct.BDRVQuorumState, ptr %11, i32 0, i32 0
  %12 = load ptr, ptr %children, align 8
  %13 = load i32, ptr %i, align 4
  %idxprom3 = sext i32 %13 to i64
  %arrayidx4 = getelementptr ptr, ptr %12, i64 %idxprom3
  %14 = load ptr, ptr %arrayidx4, align 8
  %bs5 = getelementptr inbounds %struct.BdrvChild, ptr %14, i32 0, i32 0
  %15 = load ptr, ptr %bs5, align 8
  %16 = load ptr, ptr %sacb, align 8
  %bs6 = getelementptr inbounds %struct.QuorumChildRequest, ptr %16, i32 0, i32 0
  store ptr %15, ptr %bs6, align 8
  %17 = load ptr, ptr %s, align 8
  %children7 = getelementptr inbounds %struct.BDRVQuorumState, ptr %17, i32 0, i32 0
  %18 = load ptr, ptr %children7, align 8
  %19 = load i32, ptr %i, align 4
  %idxprom8 = sext i32 %19 to i64
  %arrayidx9 = getelementptr ptr, ptr %18, i64 %idxprom8
  %20 = load ptr, ptr %arrayidx9, align 8
  %21 = load ptr, ptr %acb, align 8
  %offset = getelementptr inbounds %struct.QuorumAIOCB, ptr %21, i32 0, i32 2
  %22 = load i64, ptr %offset, align 8
  %23 = load ptr, ptr %acb, align 8
  %bytes = getelementptr inbounds %struct.QuorumAIOCB, ptr %23, i32 0, i32 3
  %24 = load i64, ptr %bytes, align 8
  %25 = load ptr, ptr %acb, align 8
  %qcrs10 = getelementptr inbounds %struct.QuorumAIOCB, ptr %25, i32 0, i32 6
  %26 = load ptr, ptr %qcrs10, align 8
  %27 = load i32, ptr %i, align 4
  %idxprom11 = sext i32 %27 to i64
  %arrayidx12 = getelementptr %struct.QuorumChildRequest, ptr %26, i64 %idxprom11
  %qiov = getelementptr inbounds %struct.QuorumChildRequest, ptr %arrayidx12, i32 0, i32 1
  %call = call i32 @bdrv_co_preadv(ptr noundef %20, i64 noundef %22, i64 noundef %24, ptr noundef %qiov, i32 noundef 0)
  %28 = load ptr, ptr %sacb, align 8
  %ret = getelementptr inbounds %struct.QuorumChildRequest, ptr %28, i32 0, i32 3
  store i32 %call, ptr %ret, align 8
  %29 = load ptr, ptr %sacb, align 8
  %ret13 = getelementptr inbounds %struct.QuorumChildRequest, ptr %29, i32 0, i32 3
  %30 = load i32, ptr %ret13, align 8
  %cmp = icmp eq i32 %30, 0
  br i1 %cmp, label %if.then, label %if.else

if.then:                                          ; preds = %entry
  %31 = load ptr, ptr %acb, align 8
  %success_count = getelementptr inbounds %struct.QuorumAIOCB, ptr %31, i32 0, i32 8
  %32 = load i32, ptr %success_count, align 4
  %inc = add i32 %32, 1
  store i32 %inc, ptr %success_count, align 4
  br label %if.end

if.else:                                          ; preds = %entry
  %33 = load ptr, ptr %sacb, align 8
  %34 = load ptr, ptr %sacb, align 8
  %ret14 = getelementptr inbounds %struct.QuorumChildRequest, ptr %34, i32 0, i32 3
  %35 = load i32, ptr %ret14, align 8
  call void @quorum_report_bad_acb(ptr noundef %33, i32 noundef %35)
  br label %if.end

if.end:                                           ; preds = %if.else, %if.then
  %36 = load ptr, ptr %acb, align 8
  %count = getelementptr inbounds %struct.QuorumAIOCB, ptr %36, i32 0, i32 7
  %37 = load i32, ptr %count, align 8
  %inc15 = add i32 %37, 1
  store i32 %inc15, ptr %count, align 8
  %38 = load ptr, ptr %acb, align 8
  %count16 = getelementptr inbounds %struct.QuorumAIOCB, ptr %38, i32 0, i32 7
  %39 = load i32, ptr %count16, align 8
  %40 = load ptr, ptr %s, align 8
  %num_children = getelementptr inbounds %struct.BDRVQuorumState, ptr %40, i32 0, i32 1
  %41 = load i32, ptr %num_children, align 8
  %cmp17 = icmp sle i32 %39, %41
  br i1 %cmp17, label %if.then18, label %if.else19

if.then18:                                        ; preds = %if.end
  br label %if.end20

if.else19:                                        ; preds = %if.end
  call void @__assert_fail(ptr noundef @.str.32, ptr noundef @.str.6, i32 noundef 601, ptr noundef @__PRETTY_FUNCTION__.read_quorum_children_entry) #9
  unreachable

if.end20:                                         ; preds = %if.then18
  %42 = load ptr, ptr %acb, align 8
  %success_count21 = getelementptr inbounds %struct.QuorumAIOCB, ptr %42, i32 0, i32 8
  %43 = load i32, ptr %success_count21, align 4
  %44 = load ptr, ptr %s, align 8
  %num_children22 = getelementptr inbounds %struct.BDRVQuorumState, ptr %44, i32 0, i32 1
  %45 = load i32, ptr %num_children22, align 8
  %cmp23 = icmp sle i32 %43, %45
  br i1 %cmp23, label %if.then24, label %if.else25

if.then24:                                        ; preds = %if.end20
  br label %if.end26

if.else25:                                        ; preds = %if.end20
  call void @__assert_fail(ptr noundef @.str.33, ptr noundef @.str.6, i32 noundef 602, ptr noundef @__PRETTY_FUNCTION__.read_quorum_children_entry) #9
  unreachable

if.end26:                                         ; preds = %if.then24
  %46 = load ptr, ptr %acb, align 8
  %count27 = getelementptr inbounds %struct.QuorumAIOCB, ptr %46, i32 0, i32 7
  %47 = load i32, ptr %count27, align 8
  %48 = load ptr, ptr %s, align 8
  %num_children28 = getelementptr inbounds %struct.BDRVQuorumState, ptr %48, i32 0, i32 1
  %49 = load i32, ptr %num_children28, align 8
  %cmp29 = icmp eq i32 %47, %49
  br i1 %cmp29, label %if.then30, label %if.end32

if.then30:                                        ; preds = %if.end26
  %50 = load ptr, ptr %acb, align 8
  %co31 = getelementptr inbounds %struct.QuorumAIOCB, ptr %50, i32 0, i32 1
  %51 = load ptr, ptr %co31, align 8
  call void @qemu_coroutine_enter_if_inactive(ptr noundef %51)
  br label %if.end32

if.end32:                                         ; preds = %if.then30, %if.end26
  ret void
}