; Function Attrs: nounwind sspstrong uwtable
define internal void @read_quorum_children_entry(ptr noundef readonly captures(none) %opaque) #0 {
entry:
  %0 = load ptr, ptr %opaque, align 8
  %1 = load ptr, ptr %0, align 8
  %opaque2 = getelementptr inbounds nuw i8, ptr %1, i64 24
  %2 = load ptr, ptr %opaque2, align 8
  %idx = getelementptr inbounds nuw i8, ptr %opaque, i64 8
  %3 = load i32, ptr %idx, align 8
  %qcrs = getelementptr inbounds nuw i8, ptr %0, i64 48
  %4 = load ptr, ptr %qcrs, align 8
  %idxprom = sext i32 %3 to i64
  %arrayidx = getelementptr %struct.QuorumChildRequest, ptr %4, i64 %idxprom
  %5 = load ptr, ptr %2, align 8
  %arrayidx4 = getelementptr ptr, ptr %5, i64 %idxprom
  %6 = load ptr, ptr %arrayidx4, align 8
  %7 = load ptr, ptr %6, align 8
  store ptr %7, ptr %arrayidx, align 8
  %8 = load ptr, ptr %2, align 8
  %arrayidx9 = getelementptr ptr, ptr %8, i64 %idxprom
  %9 = load ptr, ptr %arrayidx9, align 8
  %offset = getelementptr inbounds nuw i8, ptr %0, i64 16
  %10 = load i64, ptr %offset, align 8
  %bytes = getelementptr inbounds nuw i8, ptr %0, i64 24
  %11 = load i64, ptr %bytes, align 8
  %12 = load ptr, ptr %qcrs, align 8
  %qiov = getelementptr %struct.QuorumChildRequest, ptr %12, i64 %idxprom, i32 1
  %call = tail call i32 @bdrv_co_preadv(ptr noundef %9, i64 noundef %10, i64 noundef %11, ptr noundef %qiov, i32 noundef 0) #17
  %ret = getelementptr inbounds nuw i8, ptr %arrayidx, i64 56
  store i32 %call, ptr %ret, align 8
  %cmp = icmp eq i32 %call, 0
  br i1 %cmp, label %if.then, label %if.else

if.then:                                          ; preds = %entry
  %success_count = getelementptr inbounds nuw i8, ptr %0, i64 60
  %13 = load i32, ptr %success_count, align 4
  %inc = add i32 %13, 1
  store i32 %inc, ptr %success_count, align 4
  br label %if.end

if.else:                                          ; preds = %entry
  %arrayidx.val = load ptr, ptr %arrayidx, align 8
  %14 = getelementptr i8, ptr %arrayidx, i64 64
  %arrayidx.val23 = load ptr, ptr %14, align 8
  %is_read.i = getelementptr inbounds nuw i8, ptr %arrayidx.val23, i64 88
  %15 = load i8, ptr %is_read.i, align 8
  %offset.i = getelementptr inbounds nuw i8, ptr %arrayidx.val23, i64 16
  %16 = load i64, ptr %offset.i, align 8
  %bytes.i = getelementptr inbounds nuw i8, ptr %arrayidx.val23, i64 24
  %17 = load i64, ptr %bytes.i, align 8
  %cmp.i.i = icmp slt i32 %call, 0
  br i1 %cmp.i.i, label %if.then.i.i, label %quorum_report_bad_acb.exit

if.then.i.i:                                      ; preds = %if.else
  %sub3.i.i = sub i32 0, %call
  %call.i.i = tail call ptr @strerror(i32 noundef %sub3.i.i) #17
  br label %quorum_report_bad_acb.exit

quorum_report_bad_acb.exit:                       ; preds = %if.else, %if.then.i.i
  %msg.0.i.i = phi ptr [ %call.i.i, %if.then.i.i ], [ null, %if.else ]
  %node_name.i = getelementptr inbounds nuw i8, ptr %arrayidx.val, i64 16600
  %18 = and i8 %15, 1
  %19 = xor i8 %18, 1
  %cond.i = zext nneg i8 %19 to i32
  %add.i.i = add i64 %16, 511
  %sub.i.i = add i64 %add.i.i, %17
  %div25.i.i = lshr i64 %sub.i.i, 9
  %div4.i.i = lshr i64 %16, 9
  %sub4.i.i = sub nsw i64 %div25.i.i, %div4.i.i
  tail call void @qapi_event_send_quorum_report_bad(i32 noundef range(i32 0, 3) %cond.i, ptr noundef %msg.0.i.i, ptr noundef nonnull %node_name.i, i64 noundef %div4.i.i, i64 noundef %sub4.i.i) #17
  br label %if.end

if.end:                                           ; preds = %quorum_report_bad_acb.exit, %if.then
  %count = getelementptr inbounds nuw i8, ptr %0, i64 56
  %20 = load i32, ptr %count, align 8
  %inc15 = add i32 %20, 1
  store i32 %inc15, ptr %count, align 8
  %num_children = getelementptr inbounds nuw i8, ptr %2, i64 8
  %21 = load i32, ptr %num_children, align 8
  %cmp17.not = icmp sgt i32 %inc15, %21
  br i1 %cmp17.not, label %if.else19, label %if.end20

if.else19:                                        ; preds = %if.end
  tail call void @__assert_fail(ptr noundef nonnull @.str.32, ptr noundef nonnull @.str.6, i32 noundef 601, ptr noundef nonnull @__PRETTY_FUNCTION__.read_quorum_children_entry) #19
  unreachable

if.end20:                                         ; preds = %if.end
  %success_count21 = getelementptr inbounds nuw i8, ptr %0, i64 60
  %22 = load i32, ptr %success_count21, align 4
  %cmp23.not = icmp sgt i32 %22, %21
  br i1 %cmp23.not, label %if.else25, label %if.end26

if.else25:                                        ; preds = %if.end20
  tail call void @__assert_fail(ptr noundef nonnull @.str.33, ptr noundef nonnull @.str.6, i32 noundef 602, ptr noundef nonnull @__PRETTY_FUNCTION__.read_quorum_children_entry) #19
  unreachable

if.end26:                                         ; preds = %if.end20
  %cmp29 = icmp eq i32 %inc15, %21
  br i1 %cmp29, label %if.then30, label %if.end32

if.then30:                                        ; preds = %if.end26
  %co31 = getelementptr inbounds nuw i8, ptr %0, i64 8
  %23 = load ptr, ptr %co31, align 8
  tail call void @qemu_coroutine_enter_if_inactive(ptr noundef %23) #17
  br label %if.end32

if.end32:                                         ; preds = %if.then30, %if.end26
  ret void
}